; Function Attrs: nounwind uwtable
define internal fastcc range(i32 0, 2) i32 @ssl_print_hexbuf(ptr noundef %0, i32 noundef range(i32 6, 9) %1, ptr noundef %2, i64 noundef range(i64 1, 3) %3, ptr noundef nonnull captures(none) %4, ptr noundef nonnull captures(none) %5) unnamed_addr #0 {
  %7 = load ptr, ptr %4, align 8, !tbaa !83
  %8 = load i64, ptr %5, align 8, !tbaa !84
  %9 = icmp ult i64 %8, %3
  br i1 %9, label %38, label %10

10:                                               ; preds = %6
  %11 = load i8, ptr %7, align 1, !tbaa !75
  %12 = zext i8 %11 to i64
  %13 = icmp samesign ugt i64 %3, 1
  br i1 %13, label %14, label %20

14:                                               ; preds = %10
  %15 = shl nuw nsw i64 %12, 8
  %16 = getelementptr inbounds nuw i8, ptr %7, i64 1
  %17 = load i8, ptr %16, align 1, !tbaa !75
  %18 = zext i8 %17 to i64
  %19 = or disjoint i64 %15, %18
  br label %20

20:                                               ; preds = %14, %10
  %.0 = phi i64 [ %19, %14 ], [ %12, %10 ]
  %21 = add nuw nsw i64 %.0, %3
  %22 = icmp ult i64 %8, %21
  br i1 %22, label %38, label %23

23:                                               ; preds = %20
  %24 = getelementptr inbounds nuw i8, ptr %7, i64 %3
  %25 = tail call i32 @BIO_indent(ptr noundef %0, i32 noundef range(i32 0, 15) %1, i32 noundef 80) #3
  %26 = trunc nuw nsw i64 %.0 to i32
  %27 = tail call i32 (ptr, ptr, ...) @BIO_printf(ptr noundef %0, ptr noundef nonnull @.str.13, ptr noundef %2, i32 noundef %26) #3
  %.not.i = icmp eq i64 %.0, 0
  br i1 %.not.i, label %ssl_print_hex.exit, label %.lr.ph.i

.lr.ph.i:                                         ; preds = %23, %.lr.ph.i
  %.011.i = phi i64 [ %32, %.lr.ph.i ], [ 0, %23 ]
  %28 = getelementptr inbounds nuw i8, ptr %24, i64 %.011.i
  %29 = load i8, ptr %28, align 1, !tbaa !75
  %30 = zext i8 %29 to i32
  %31 = tail call i32 (ptr, ptr, ...) @BIO_printf(ptr noundef %0, ptr noundef nonnull @.str.14, i32 noundef %30) #3
  %32 = add nuw nsw i64 %.011.i, 1
  %exitcond.not.i = icmp eq i64 %32, %.0
  br i1 %exitcond.not.i, label %ssl_print_hex.exit, label %.lr.ph.i, !llvm.loop !76

ssl_print_hex.exit:                               ; preds = %.lr.ph.i, %23
  %33 = tail call i32 @BIO_puts(ptr noundef %0, ptr noundef nonnull @.str.12) #3
  %34 = load ptr, ptr %4, align 8, !tbaa !83
  %35 = getelementptr inbounds nuw i8, ptr %34, i64 %21
  store ptr %35, ptr %4, align 8, !tbaa !83
  %36 = load i64, ptr %5, align 8, !tbaa !84
  %37 = sub i64 %36, %21
  store i64 %37, ptr %5, align 8, !tbaa !84
  br label %38

38:                                               ; preds = %20, %6, %ssl_print_hex.exit
  %.023 = phi i32 [ 1, %ssl_print_hex.exit ], [ 0, %6 ], [ 0, %20 ]
  ret i32 %.023
}